target datalayout = "e-m:e-p270:32:32-p271:32:32-p272:64:64-i64:64-i128:128-f80:128-n8:16:32:64-S128"
target triple = "x86_64-pc-linux-gnu"

%"class.clang::SourceLocation" = type { i32 }
%"class.llvm::SmallVectorBase" = type { ptr, i32, i32 }
%"class.clang::ParsedAttributesView" = type { %"class.clang::SourceRange", %"class.llvm::SmallVector.654" }
%"class.llvm::SmallVector.654" = type { %"class.llvm::SmallVectorImpl.655", %"struct.llvm::SmallVectorStorage.658" }
%"class.llvm::SmallVectorImpl.655" = type { %"class.llvm::SmallVectorTemplateBase.656" }
%"class.llvm::SmallVectorTemplateBase.656" = type { %"class.llvm::SmallVectorTemplateCommon.657" }
%"class.llvm::SmallVectorTemplateCommon.657" = type { %"class.llvm::SmallVectorBase" }
%"struct.llvm::SmallVectorStorage.658" = type { [48 x i8] }
%"class.clang::SourceRange" = type { %"class.clang::SourceLocation", %"class.clang::SourceLocation" }
%"struct.clang::ParsedAttributesView::const_iterator" = type { %"class.llvm::iterator_adaptor_base" }
%"class.llvm::iterator_adaptor_base" = type { ptr }
%"class.clang::ParsedAttr" = type { %"class.clang::AttributeCommonInfo", ptr, %"class.clang::SourceLocation", %"class.clang::SourceLocation", i32, %"class.clang::SourceLocation", ptr, ptr }
%"class.clang::AttributeCommonInfo" = type { ptr, ptr, %"class.clang::SourceRange", %"class.clang::SourceLocation", i32 }
%"struct.clang::ParsedAttrInfo" = type { ptr, i64, %"class.llvm::ArrayRef.1805", %"class.llvm::ArrayRef.1806" }
%"class.llvm::ArrayRef.1805" = type { ptr, i64 }
%"class.llvm::ArrayRef.1806" = type { ptr, i64 }

; Function Attrs: mustprogress nounwind uwtable
define linkonce_odr hidden void @_ZN4llvm21iterator_adaptor_baseIN5clang20ParsedAttributesView14const_iteratorEPKPNS1_10ParsedAttrESt26random_access_iterator_tagS4_lS5_RS4_EC2ES7_(ptr noundef nonnull align 8 dereferenceable(8) %0, ptr noundef %1) unnamed_addr #0 comdat align 2 {
  %3 = alloca ptr, align 8
  %4 = alloca ptr, align 8
  store ptr %0, ptr %3, align 8
  store ptr %1, ptr %4, align 8
  %5 = load ptr, ptr %3, align 8
  %6 = getelementptr inbounds nuw %"class.llvm::iterator_adaptor_base", ptr %5, i32 0, i32 0
  %7 = load ptr, ptr %4, align 8
  store ptr %7, ptr %6, align 8
  ret void
}

; Function Attrs: mustprogress nounwind uwtable
define linkonce_odr hidden noundef zeroext i1 @_ZN4llvmeqERKNS_21iterator_adaptor_baseIN5clang20ParsedAttributesView14const_iteratorEPKPNS1_10ParsedAttrESt26random_access_iterator_tagS4_lS5_RS4_EESC_(ptr noundef nonnull align 8 dereferenceable(8) %0, ptr noundef nonnull align 8 dereferenceable(8) %1) #0 comdat {
  %3 = alloca ptr, align 8
  %4 = alloca ptr, align 8
  store ptr %0, ptr %3, align 8
  store ptr %1, ptr %4, align 8
  %5 = load ptr, ptr %3, align 8
  %6 = getelementptr inbounds nuw %"class.llvm::iterator_adaptor_base", ptr %5, i32 0, i32 0
  %7 = load ptr, ptr %6, align 8
  %8 = load ptr, ptr %4, align 8
  %9 = getelementptr inbounds nuw %"class.llvm::iterator_adaptor_base", ptr %8, i32 0, i32 0
  %10 = load ptr, ptr %9, align 8
  %11 = icmp eq ptr %7, %10
  ret i1 %11
}

; Function Attrs: mustprogress nounwind uwtable
define linkonce_odr hidden noundef ptr @_ZNK4llvm25SmallVectorTemplateCommonIPN5clang10ParsedAttrEvE3endEv(ptr noundef nonnull align 8 dereferenceable(16) %0) #0 comdat align 2 {
  %2 = alloca ptr, align 8
  store ptr %0, ptr %2, align 8
  %3 = load ptr, ptr %2, align 8
  %4 = call noundef ptr @_ZNK4llvm25SmallVectorTemplateCommonIPN5clang10ParsedAttrEvE5beginEv(ptr noundef nonnull align 8 dereferenceable(16) %3)
  %5 = call noundef i64 @_ZNK4llvm15SmallVectorBaseIjE4sizeEv(ptr noundef nonnull align 8 dereferenceable(16) %3)
  %6 = getelementptr inbounds ptr, ptr %4, i64 %5
  ret ptr %6
}

; Function Attrs: mustprogress nounwind uwtable
define linkonce_odr hidden void @_ZN5clang20ParsedAttributesView14const_iteratorC2EPKPNS_10ParsedAttrE(ptr noundef nonnull align 8 dereferenceable(8) %0, ptr noundef %1) unnamed_addr #0 comdat align 2 {
  %3 = alloca ptr, align 8
  %4 = alloca ptr, align 8
  store ptr %0, ptr %3, align 8
  store ptr %1, ptr %4, align 8
  %5 = load ptr, ptr %3, align 8
  %6 = load ptr, ptr %4, align 8
  call void @_ZN4llvm21iterator_adaptor_baseIN5clang20ParsedAttributesView14const_iteratorEPKPNS1_10ParsedAttrESt26random_access_iterator_tagS4_lS5_RS4_EC2ES7_(ptr noundef nonnull align 8 dereferenceable(8) %5, ptr noundef %6)
  ret void
}

; Function Attrs: mustprogress nounwind uwtable
define linkonce_odr hidden noundef ptr @_ZNK4llvm25SmallVectorTemplateCommonIPN5clang10ParsedAttrEvE5beginEv(ptr noundef nonnull align 8 dereferenceable(16) %0) #0 comdat align 2 {
  %2 = alloca ptr, align 8
  store ptr %0, ptr %2, align 8
  %3 = load ptr, ptr %2, align 8
  %4 = getelementptr inbounds nuw %"class.llvm::SmallVectorBase", ptr %3, i32 0, i32 0
  %5 = load ptr, ptr %4, align 8
  ret ptr %5
}

; Function Attrs: mustprogress nounwind uwtable
define linkonce_odr hidden noundef nonnull align 8 dereferenceable(8) ptr @_ZN4llvm21iterator_adaptor_baseIN5clang20ParsedAttributesView14const_iteratorEPKPNS1_10ParsedAttrESt26random_access_iterator_tagS4_lS5_RS4_EppEv(ptr noundef nonnull align 8 dereferenceable(8) %0) #0 comdat align 2 {
  %2 = alloca ptr, align 8
  store ptr %0, ptr %2, align 8
  %3 = load ptr, ptr %2, align 8
  %4 = getelementptr inbounds nuw %"class.llvm::iterator_adaptor_base", ptr %3, i32 0, i32 0
  %5 = load ptr, ptr %4, align 8
  %6 = getelementptr inbounds ptr, ptr %5, i32 1
  store ptr %6, ptr %4, align 8
  ret ptr %3
}

; Function Attrs: mustprogress nounwind uwtable
define linkonce_odr hidden noundef i32 @_ZNK5clang10ParsedAttr7getKindEv(ptr noundef nonnull align 8 dereferenceable(72) %0) #0 comdat align 2 {
  %2 = alloca ptr, align 8
  store ptr %0, ptr %2, align 8
  %3 = load ptr, ptr %2, align 8
  %4 = getelementptr inbounds nuw %"class.clang::ParsedAttr", ptr %3, i32 0, i32 7
  %5 = load ptr, ptr %4, align 8
  %6 = getelementptr inbounds nuw %"struct.clang::ParsedAttrInfo", ptr %5, i32 0, i32 1
  %7 = load i64, ptr %6, align 8
  %8 = and i64 %7, 65535
  %9 = trunc i64 %8 to i32
  ret i32 %9
}

; Function Attrs: mustprogress nounwind uwtable
define linkonce_odr hidden noundef nonnull align 8 dereferenceable(72) ptr @_ZNK5clang20ParsedAttributesView14const_iteratordeEv(ptr noundef nonnull align 8 dereferenceable(8) %0) #0 comdat align 2 {
  %2 = alloca ptr, align 8
  store ptr %0, ptr %2, align 8
  %3 = load ptr, ptr %2, align 8
  %4 = getelementptr inbounds nuw %"class.llvm::iterator_adaptor_base", ptr %3, i32 0, i32 0
  %5 = load ptr, ptr %4, align 8
  %6 = load ptr, ptr %5, align 8
  ret ptr %6
}

; Function Attrs: mustprogress nounwind uwtable
define linkonce_odr hidden noundef zeroext i1 @_ZNK4llvm20iterator_facade_baseIN5clang20ParsedAttributesView14const_iteratorESt26random_access_iterator_tagNS1_10ParsedAttrElPS5_RS5_EneERKS3_(ptr noundef nonnull align 1 dereferenceable(1) %0, ptr noundef nonnull align 8 dereferenceable(8) %1) #0 comdat align 2 {
  %3 = alloca ptr, align 8
  %4 = alloca ptr, align 8
  store ptr %0, ptr %3, align 8
  store ptr %1, ptr %4, align 8
  %5 = load ptr, ptr %3, align 8
  %6 = load ptr, ptr %4, align 8
  %7 = call noundef zeroext i1 @_ZN4llvmeqERKNS_21iterator_adaptor_baseIN5clang20ParsedAttributesView14const_iteratorEPKPNS1_10ParsedAttrESt26random_access_iterator_tagS4_lS5_RS4_EESC_(ptr noundef nonnull align 8 dereferenceable(8) %5, ptr noundef nonnull align 8 dereferenceable(8) %6)
  %8 = xor i1 %7, true
  ret i1 %8
}

; Function Attrs: mustprogress nounwind uwtable
define linkonce_odr hidden ptr @_ZNK5clang20ParsedAttributesView3endEv(ptr noundef nonnull align 8 dereferenceable(72) %0) #0 comdat align 2 {
  %2 = alloca %"struct.clang::ParsedAttributesView::const_iterator", align 8
  %3 = alloca ptr, align 8
  store ptr %0, ptr %3, align 8
  %4 = load ptr, ptr %3, align 8
  %5 = getelementptr inbounds nuw %"class.clang::ParsedAttributesView", ptr %4, i32 0, i32 1
  %6 = call noundef ptr @_ZNK4llvm25SmallVectorTemplateCommonIPN5clang10ParsedAttrEvE3endEv(ptr noundef nonnull align 8 dereferenceable(16) %5)
  call void @_ZN5clang20ParsedAttributesView14const_iteratorC2EPKPNS_10ParsedAttrE(ptr noundef nonnull align 8 dereferenceable(8) %2, ptr noundef %6)
  %7 = getelementptr inbounds nuw %"struct.clang::ParsedAttributesView::const_iterator", ptr %2, i32 0, i32 0
  %8 = getelementptr inbounds nuw %"class.llvm::iterator_adaptor_base", ptr %7, i32 0, i32 0
  %9 = load ptr, ptr %8, align 8
  ret ptr %9
}

; Function Attrs: mustprogress nounwind uwtable
define linkonce_odr hidden ptr @_ZNK5clang20ParsedAttributesView5beginEv(ptr noundef nonnull align 8 dereferenceable(72) %0) #0 comdat align 2 {
  %2 = alloca %"struct.clang::ParsedAttributesView::const_iterator", align 8
  %3 = alloca ptr, align 8
  store ptr %0, ptr %3, align 8
  %4 = load ptr, ptr %3, align 8
  %5 = getelementptr inbounds nuw %"class.clang::ParsedAttributesView", ptr %4, i32 0, i32 1
  %6 = call noundef ptr @_ZNK4llvm25SmallVectorTemplateCommonIPN5clang10ParsedAttrEvE5beginEv(ptr noundef nonnull align 8 dereferenceable(16) %5)
  call void @_ZN5clang20ParsedAttributesView14const_iteratorC2EPKPNS_10ParsedAttrE(ptr noundef nonnull align 8 dereferenceable(8) %2, ptr noundef %6)
  %7 = getelementptr inbounds nuw %"struct.clang::ParsedAttributesView::const_iterator", ptr %2, i32 0, i32 0
  %8 = getelementptr inbounds nuw %"class.llvm::iterator_adaptor_base", ptr %7, i32 0, i32 0
  %9 = load ptr, ptr %8, align 8
  ret ptr %9
}

; Function Attrs: mustprogress nounwind uwtable
define internal noundef i32 @_ZL14getImageAccessRKN5clang20ParsedAttributesViewE(ptr noundef nonnull align 8 dereferenceable(72) %0) #0 {
  %2 = alloca i32, align 4
  %3 = alloca ptr, align 8
  %4 = alloca ptr, align 8
  %5 = alloca %"struct.clang::ParsedAttributesView::const_iterator", align 8
  %6 = alloca %"struct.clang::ParsedAttributesView::const_iterator", align 8
  %7 = alloca ptr, align 8
  store ptr %0, ptr %3, align 8
  %8 = load ptr, ptr %3, align 8
  store ptr %8, ptr %4, align 8
  %9 = load ptr, ptr %4, align 8
  %10 = call ptr @_ZNK5clang20ParsedAttributesView5beginEv(ptr noundef nonnull align 8 dereferenceable(72) %9)
  %11 = getelementptr inbounds nuw %"struct.clang::ParsedAttributesView::const_iterator", ptr %5, i32 0, i32 0
  %12 = getelementptr inbounds nuw %"class.llvm::iterator_adaptor_base", ptr %11, i32 0, i32 0
  store ptr %10, ptr %12, align 8
  %13 = load ptr, ptr %4, align 8
  %14 = call ptr @_ZNK5clang20ParsedAttributesView3endEv(ptr noundef nonnull align 8 dereferenceable(72) %13)
  %15 = getelementptr inbounds nuw %"struct.clang::ParsedAttributesView::const_iterator", ptr %6, i32 0, i32 0
  %16 = getelementptr inbounds nuw %"class.llvm::iterator_adaptor_base", ptr %15, i32 0, i32 0
  store ptr %14, ptr %16, align 8
  br label %17

17:                                               ; preds = %28, %1
  %18 = call noundef zeroext i1 @_ZNK4llvm20iterator_facade_baseIN5clang20ParsedAttributesView14const_iteratorESt26random_access_iterator_tagNS1_10ParsedAttrElPS5_RS5_EneERKS3_(ptr noundef nonnull align 1 dereferenceable(1) %5, ptr noundef nonnull align 8 dereferenceable(8) %6)
  br i1 %18, label %19, label %30

19:                                               ; preds = %17
  %20 = call noundef nonnull align 8 dereferenceable(72) ptr @_ZNK5clang20ParsedAttributesView14const_iteratordeEv(ptr noundef nonnull align 8 dereferenceable(8) %5)
  store ptr %20, ptr %7, align 8
  %21 = load ptr, ptr %7, align 8
  %22 = call noundef i32 @_ZNK5clang10ParsedAttr7getKindEv(ptr noundef nonnull align 8 dereferenceable(72) %21)
  %23 = icmp eq i32 %22, 263
  br i1 %23, label %24, label %27

24:                                               ; preds = %19
  %25 = load ptr, ptr %7, align 8
  %26 = call noundef i32 @_ZNK5clang10ParsedAttr19getSemanticSpellingEv(ptr noundef nonnull align 8 dereferenceable(72) %25)
  store i32 %26, ptr %2, align 4
  br label %31

27:                                               ; preds = %19
  br label %28

28:                                               ; preds = %27
  %29 = call noundef nonnull align 8 dereferenceable(8) ptr @_ZN4llvm21iterator_adaptor_baseIN5clang20ParsedAttributesView14const_iteratorEPKPNS1_10ParsedAttrESt26random_access_iterator_tagS4_lS5_RS4_EppEv(ptr noundef nonnull align 8 dereferenceable(8) %5)
  br label %17

30:                                               ; preds = %17
  store i32 0, ptr %2, align 4
  br label %31

31:                                               ; preds = %30, %24
  %32 = load i32, ptr %2, align 4
  ret i32 %32
}