; Function Attrs: mustprogress nounwind uwtable
define internal fastcc noundef i32 @_ZL14getImageAccessRKN5clang20ParsedAttributesViewE(ptr noundef nonnull align 8 dereferenceable(72) %0) unnamed_addr #0 {
  %2 = getelementptr inbounds nuw i8, ptr %0, i64 8
  %3 = load ptr, ptr %2, align 8
  %4 = tail call noundef i64 @_ZNK4llvm15SmallVectorBaseIjE4sizeEv(ptr noundef nonnull align 8 dereferenceable(16) %2) #21
  %5 = getelementptr inbounds ptr, ptr %3, i64 %4
  %.not8 = icmp eq i64 %4, 0
  br i1 %.not8, label %.loopexit, label %.lr.ph

6:                                                ; preds = %.lr.ph
  %7 = getelementptr inbounds nuw i8, ptr %.sroa.05.09, i64 8
  %.not = icmp eq ptr %7, %5
  br i1 %.not, label %.loopexit, label %.lr.ph

.lr.ph:                                           ; preds = %1, %6
  %.sroa.05.09 = phi ptr [ %7, %6 ], [ %3, %1 ]
  %8 = load ptr, ptr %.sroa.05.09, align 8
  %9 = getelementptr inbounds nuw i8, ptr %8, i64 64
  %10 = load ptr, ptr %9, align 8
  %11 = getelementptr inbounds nuw i8, ptr %10, i64 8
  %12 = load i64, ptr %11, align 8
  %13 = and i64 %12, 65535
  %14 = icmp eq i64 %13, 263
  br i1 %14, label %15, label %6

15:                                               ; preds = %.lr.ph
  %16 = tail call noundef i32 @_ZNK5clang10ParsedAttr19getSemanticSpellingEv(ptr noundef nonnull align 8 dereferenceable(72) %8) #21
  br label %.loopexit

.loopexit:                                        ; preds = %6, %1, %15
  %.0 = phi i32 [ %16, %15 ], [ 0, %1 ], [ 0, %6 ]
  ret i32 %.0
}